; Function Attrs: mustprogress nounwind uwtable
define dso_local noundef ptr @_ZN4llvm15WindowScheduler8getOriMIEPNS_12MachineInstrE(ptr noundef nonnull align 8 dereferenceable(6436) %0, ptr noundef %1) local_unnamed_addr #0 align 2 {
  %3 = alloca ptr, align 8
  store ptr %1, ptr %3, align 8
  %4 = getelementptr inbounds nuw i8, ptr %0, i64 208
  %5 = load ptr, ptr %4, align 8
  %6 = getelementptr inbounds nuw i8, ptr %0, i64 224
  %7 = load i32, ptr %6, align 8
  %8 = icmp eq i32 %7, 0
  br i1 %8, label %_ZN4llvm12DenseMapBaseINS_8DenseMapIPNS_12MachineInstrES3_NS_12DenseMapInfoIS3_vEENS_6detail12DenseMapPairIS3_S3_EEEES3_S3_S5_S8_E15LookupBucketForIS3_EEbRKT_RPS8_.exit.i.i, label %9

9:                                                ; preds = %2
  %10 = ptrtoint ptr %1 to i64
  %11 = trunc i64 %10 to i32
  %12 = lshr i32 %11, 4
  %13 = lshr i32 %11, 9
  %14 = xor i32 %12, %13
  %15 = add i32 %7, -1
  %.02733.i.i.i.i = and i32 %15, %14
  %16 = zext nneg i32 %.02733.i.i.i.i to i64
  %17 = getelementptr inbounds nuw %"struct.llvm::detail::DenseMapPair.501", ptr %5, i64 %16
  %18 = load ptr, ptr %17, align 8
  %19 = icmp eq ptr %1, %18
  br i1 %19, label %_ZN4llvm12DenseMapBaseINS_8DenseMapIPNS_12MachineInstrES3_NS_12DenseMapInfoIS3_vEENS_6detail12DenseMapPairIS3_S3_EEEES3_S3_S5_S8_EixERKS3_.exit, label %.lr.ph.i.i.i.i

.lr.ph.i.i.i.i:                                   ; preds = %9, %25
  %20 = phi ptr [ %32, %25 ], [ %18, %9 ]
  %21 = phi ptr [ %31, %25 ], [ %17, %9 ]
  %.02736.i.i.i.i = phi i32 [ %.027.i.i.i.i, %25 ], [ %.02733.i.i.i.i, %9 ]
  %.02635.i.i.i.i = phi i32 [ %28, %25 ], [ 1, %9 ]
  %.02834.i.i.i.i = phi ptr [ %spec.select.i.i.i.i, %25 ], [ null, %9 ]
  %22 = icmp eq ptr %20, inttoptr (i64 -4096 to ptr)
  br i1 %22, label %23, label %25

23:                                               ; preds = %.lr.ph.i.i.i.i
  %.not.i.i.i.i = icmp eq ptr %.02834.i.i.i.i, null
  %24 = select i1 %.not.i.i.i.i, ptr %21, ptr %.02834.i.i.i.i
  br label %_ZN4llvm12DenseMapBaseINS_8DenseMapIPNS_12MachineInstrES3_NS_12DenseMapInfoIS3_vEENS_6detail12DenseMapPairIS3_S3_EEEES3_S3_S5_S8_E15LookupBucketForIS3_EEbRKT_RPS8_.exit.i.i

25:                                               ; preds = %.lr.ph.i.i.i.i
  %26 = icmp eq ptr %20, inttoptr (i64 -8192 to ptr)
  %27 = icmp eq ptr %.02834.i.i.i.i, null
  %or.cond.not.i.i.i.i = select i1 %26, i1 %27, i1 false
  %spec.select.i.i.i.i = select i1 %or.cond.not.i.i.i.i, ptr %21, ptr %.02834.i.i.i.i
  %28 = add i32 %.02635.i.i.i.i, 1
  %29 = add i32 %.02635.i.i.i.i, %.02736.i.i.i.i
  %.027.i.i.i.i = and i32 %29, %15
  %30 = zext i32 %.027.i.i.i.i to i64
  %31 = getelementptr inbounds nuw %"struct.llvm::detail::DenseMapPair.501", ptr %5, i64 %30
  %32 = load ptr, ptr %31, align 8
  %33 = icmp eq ptr %1, %32
  br i1 %33, label %_ZN4llvm12DenseMapBaseINS_8DenseMapIPNS_12MachineInstrES3_NS_12DenseMapInfoIS3_vEENS_6detail12DenseMapPairIS3_S3_EEEES3_S3_S5_S8_EixERKS3_.exit, label %.lr.ph.i.i.i.i, !llvm.loop !24

_ZN4llvm12DenseMapBaseINS_8DenseMapIPNS_12MachineInstrES3_NS_12DenseMapInfoIS3_vEENS_6detail12DenseMapPairIS3_S3_EEEES3_S3_S5_S8_E15LookupBucketForIS3_EEbRKT_RPS8_.exit.i.i: ; preds = %23, %2
  %.sink.i.i.i.i = phi ptr [ %24, %23 ], [ null, %2 ]
  %34 = call noundef ptr @_ZN4llvm12DenseMapBaseINS_8DenseMapIPNS_12MachineInstrES3_NS_12DenseMapInfoIS3_vEENS_6detail12DenseMapPairIS3_S3_EEEES3_S3_S5_S8_E20InsertIntoBucketImplIS3_EEPS8_RKS3_RKT_SC_(ptr noundef nonnull align 1 dereferenceable(1) %4, ptr noundef nonnull align 8 dereferenceable(8) %3, ptr noundef nonnull align 8 dereferenceable(8) %3, ptr noundef %.sink.i.i.i.i)
  %35 = load ptr, ptr %3, align 8
  store ptr %35, ptr %34, align 8
  %36 = getelementptr inbounds nuw i8, ptr %34, i64 8
  store ptr null, ptr %36, align 8
  br label %_ZN4llvm12DenseMapBaseINS_8DenseMapIPNS_12MachineInstrES3_NS_12DenseMapInfoIS3_vEENS_6detail12DenseMapPairIS3_S3_EEEES3_S3_S5_S8_EixERKS3_.exit

_ZN4llvm12DenseMapBaseINS_8DenseMapIPNS_12MachineInstrES3_NS_12DenseMapInfoIS3_vEENS_6detail12DenseMapPairIS3_S3_EEEES3_S3_S5_S8_EixERKS3_.exit: ; preds = %25, %9, %_ZN4llvm12DenseMapBaseINS_8DenseMapIPNS_12MachineInstrES3_NS_12DenseMapInfoIS3_vEENS_6detail12DenseMapPairIS3_S3_EEEES3_S3_S5_S8_E15LookupBucketForIS3_EEbRKT_RPS8_.exit.i.i
  %.0.i.i = phi ptr [ %34, %_ZN4llvm12DenseMapBaseINS_8DenseMapIPNS_12MachineInstrES3_NS_12DenseMapInfoIS3_vEENS_6detail12DenseMapPairIS3_S3_EEEES3_S3_S5_S8_E15LookupBucketForIS3_EEbRKT_RPS8_.exit.i.i ], [ %17, %9 ], [ %31, %25 ]
  %37 = getelementptr inbounds nuw i8, ptr %.0.i.i, i64 8
  %38 = load ptr, ptr %37, align 8
  ret ptr %38
}